target datalayout = "e-m:e-p270:32:32-p271:32:32-p272:64:64-i64:64-i128:128-f80:128-n8:16:32:64-S128"
target triple = "x86_64-pc-linux-gnu"

%struct.lv_point_precise_t = type { float, float }
%struct.lv_color_t = type { i8, i8, i8 }

@opa_saved = internal global i8 0, align 1
@__const.line_cb.widths = private unnamed_addr constant [4 x i32] [i32 1, i32 3, i32 5, i32 10], align 16

; Function Attrs: nounwind uwtable
define internal void @add_to_cell(ptr noundef %0, i32 noundef %1, i32 noundef %2) #0 {
  %4 = alloca ptr, align 8
  %5 = alloca i32, align 4
  %6 = alloca i32, align 4
  store ptr %0, ptr %4, align 8, !tbaa !8
  store i32 %1, ptr %5, align 4, !tbaa !3
  store i32 %2, ptr %6, align 4, !tbaa !3
  %7 = load ptr, ptr %4, align 8, !tbaa !8
  %8 = load i32, ptr %5, align 4, !tbaa !3
  %9 = load i32, ptr %6, align 4, !tbaa !3
  call void @lv_obj_set_grid_cell(ptr noundef %7, i32 noundef 1, i32 noundef %8, i32 noundef 1, i32 noundef 1, i32 noundef %9, i32 noundef 1)
  ret void
}

; Function Attrs: nounwind uwtable
define internal ptr @line_obj_create(ptr noundef %0, i32 noundef %1, i32 noundef %2, ptr noundef %3) #0 {
  %5 = alloca ptr, align 8
  %6 = alloca i32, align 4
  %7 = alloca i32, align 4
  %8 = alloca ptr, align 8
  %9 = alloca ptr, align 8
  %10 = alloca %struct.lv_color_t, align 1
  %11 = alloca i24, align 4
  store ptr %0, ptr %5, align 8, !tbaa !8
  store i32 %1, ptr %6, align 4, !tbaa !3
  store i32 %2, ptr %7, align 4, !tbaa !3
  store ptr %3, ptr %8, align 8, !tbaa !51
  call void @llvm.lifetime.start.p0(i64 8, ptr %9) #5
  %12 = load ptr, ptr %5, align 8, !tbaa !8
  %13 = call ptr @lv_line_create(ptr noundef %12)
  store ptr %13, ptr %9, align 8, !tbaa !8
  %14 = load ptr, ptr %9, align 8, !tbaa !8
  call void @lv_obj_remove_style_all(ptr noundef %14)
  %15 = load ptr, ptr %9, align 8, !tbaa !8
  %16 = load ptr, ptr %8, align 8, !tbaa !51
  call void @lv_line_set_points(ptr noundef %15, ptr noundef %16, i32 noundef 2)
  %17 = load ptr, ptr %9, align 8, !tbaa !8
  call void @lv_obj_set_size(ptr noundef %17, i32 noundef 55, i32 noundef 30)
  %18 = load ptr, ptr %9, align 8, !tbaa !8
  %19 = call i24 @lv_color_hex3(i32 noundef 4080)
  store i24 %19, ptr %10, align 1
  call void @llvm.memcpy.p0.p0.i64(ptr align 4 %11, ptr align 1 %10, i64 3, i1 false)
  %20 = load i24, ptr %11, align 4
  call void @lv_obj_set_style_line_color(ptr noundef %18, i24 %20, i32 noundef 0)
  %21 = load ptr, ptr %9, align 8, !tbaa !8
  %22 = load i8, ptr @opa_saved, align 1, !tbaa !7
  call void @lv_obj_set_style_opa(ptr noundef %21, i8 noundef zeroext %22, i32 noundef 0)
  %23 = load ptr, ptr %9, align 8, !tbaa !8
  %24 = load i32, ptr %6, align 4, !tbaa !3
  %25 = load i32, ptr %7, align 4, !tbaa !3
  call void @add_to_cell(ptr noundef %23, i32 noundef %24, i32 noundef %25)
  %26 = load ptr, ptr %9, align 8, !tbaa !8
  call void @llvm.lifetime.end.p0(i64 8, ptr %9) #5
  ret ptr %26
}

; Function Attrs: nounwind uwtable
define internal void @line_cb(ptr noundef %0) #0 {
  %2 = alloca ptr, align 8
  %3 = alloca [4 x i32], align 16
  %4 = alloca i32, align 4
  %5 = alloca i32, align 4
  %6 = alloca i32, align 4
  %7 = alloca ptr, align 8
  store ptr %0, ptr %2, align 8, !tbaa !8
  call void @llvm.lifetime.start.p0(i64 16, ptr %3) #5
  call void @llvm.memcpy.p0.p0.i64(ptr align 16 %3, ptr align 16 @__const.line_cb.widths, i64 16, i1 false)
  call void @llvm.lifetime.start.p0(i64 4, ptr %4) #5
  store i32 0, ptr %4, align 4, !tbaa !3
  br label %8

8:                                                ; preds = %47, %1
  %9 = load i32, ptr %4, align 4, !tbaa !3
  %10 = icmp ult i32 %9, 2
  br i1 %10, label %11, label %50

11:                                               ; preds = %8
  call void @llvm.lifetime.start.p0(i64 4, ptr %5) #5
  store i32 0, ptr %5, align 4, !tbaa !3
  br label %12

12:                                               ; preds = %43, %11
  %13 = load i32, ptr %5, align 4, !tbaa !3
  %14 = icmp ult i32 %13, 4
  br i1 %14, label %15, label %46

15:                                               ; preds = %12
  call void @llvm.lifetime.start.p0(i64 4, ptr %6) #5
  store i32 0, ptr %6, align 4, !tbaa !3
  br label %16

16:                                               ; preds = %39, %15
  %17 = load i32, ptr %6, align 4, !tbaa !3
  %18 = icmp ult i32 %17, 8
  br i1 %18, label %19, label %42

19:                                               ; preds = %16
  call void @llvm.lifetime.start.p0(i64 8, ptr %7) #5
  %20 = load ptr, ptr %2, align 8, !tbaa !8
  %21 = load i32, ptr %6, align 4, !tbaa !3
  %22 = load i32, ptr %5, align 4, !tbaa !3
  %23 = load i32, ptr %4, align 4, !tbaa !3
  %24 = mul i32 4, %23
  %25 = add i32 %22, %24
  %26 = load i32, ptr %6, align 4, !tbaa !3
  %27 = zext i32 %26 to i64
  %28 = getelementptr inbounds nuw [8 x [2 x %struct.lv_point_precise_t]], ptr @line_cb.points, i64 0, i64 %27
  %29 = getelementptr inbounds [2 x %struct.lv_point_precise_t], ptr %28, i64 0, i64 0
  %30 = call ptr @line_obj_create(ptr noundef %20, i32 noundef %21, i32 noundef %25, ptr noundef %29)
  store ptr %30, ptr %7, align 8, !tbaa !8
  %31 = load ptr, ptr %7, align 8, !tbaa !8
  %32 = load i32, ptr %5, align 4, !tbaa !3
  %33 = zext i32 %32 to i64
  %34 = getelementptr inbounds nuw [4 x i32], ptr %3, i64 0, i64 %33
  %35 = load i32, ptr %34, align 4, !tbaa !3
  call void @lv_obj_set_style_line_width(ptr noundef %31, i32 noundef %35, i32 noundef 0)
  %36 = load ptr, ptr %7, align 8, !tbaa !8
  %37 = load i32, ptr %4, align 4, !tbaa !3
  %38 = icmp ne i32 %37, 0
  call void @lv_obj_set_style_line_rounded(ptr noundef %36, i1 noundef zeroext %38, i32 noundef 0)
  call void @llvm.lifetime.end.p0(i64 8, ptr %7) #5
  br label %39

39:                                               ; preds = %19
  %40 = load i32, ptr %6, align 4, !tbaa !3
  %41 = add i32 %40, 1
  store i32 %41, ptr %6, align 4, !tbaa !3
  br label %16, !llvm.loop !38

42:                                               ; preds = %16
  call void @llvm.lifetime.end.p0(i64 4, ptr %6) #5
  br label %43

43:                                               ; preds = %42
  %44 = load i32, ptr %5, align 4, !tbaa !3
  %45 = add i32 %44, 1
  store i32 %45, ptr %5, align 4, !tbaa !3
  br label %12, !llvm.loop !39

46:                                               ; preds = %12
  call void @llvm.lifetime.end.p0(i64 4, ptr %5) #5
  br label %47

47:                                               ; preds = %46
  %48 = load i32, ptr %4, align 4, !tbaa !3
  %49 = add i32 %48, 1
  store i32 %49, ptr %4, align 4, !tbaa !3
  br label %8, !llvm.loop !40

50:                                               ; preds = %8
  call void @llvm.lifetime.end.p0(i64 4, ptr %4) #5
  call void @llvm.lifetime.end.p0(i64 16, ptr %3) #5
  ret void
}