; Function Attrs: nounwind uwtable
define internal void @line_cb(ptr noundef %0) #0 {
  br label %.preheader16

.preheader16:                                     ; preds = %1, %15
  %2 = phi i1 [ false, %1 ], [ true, %15 ]
  %3 = phi i1 [ true, %1 ], [ false, %15 ]
  %indvars.iv25 = phi i64 [ 0, %1 ], [ 4, %15 ]
  br label %.preheader

.preheader:                                       ; preds = %.preheader16, %14
  %indvars.iv21 = phi i64 [ 0, %.preheader16 ], [ %indvars.iv.next22, %14 ]
  %4 = add nuw nsw i64 %indvars.iv21, %indvars.iv25
  %5 = getelementptr inbounds nuw [4 x i32], ptr @__const.line_cb.widths, i64 0, i64 %indvars.iv21
  %6 = trunc nuw nsw i64 %4 to i32
  br label %7

7:                                                ; preds = %.preheader, %7
  %indvars.iv = phi i64 [ 0, %.preheader ], [ %indvars.iv.next, %7 ]
  %8 = getelementptr inbounds nuw [8 x [2 x %struct.lv_point_precise_t]], ptr @line_cb.points, i64 0, i64 %indvars.iv
  %9 = tail call ptr @lv_line_create(ptr noundef %0) #6
  tail call void @lv_obj_remove_style_all(ptr noundef %9) #6
  tail call void @lv_line_set_points(ptr noundef %9, ptr noundef nonnull %8, i32 noundef 2) #6
  tail call void @lv_obj_set_size(ptr noundef %9, i32 noundef 55, i32 noundef 30) #6
  %10 = tail call i24 @lv_color_hex3(i32 noundef 4080) #6
  tail call void @lv_obj_set_style_line_color(ptr noundef %9, i24 %10, i32 noundef 0) #6
  %11 = load i8, ptr @opa_saved, align 1, !tbaa !3
  tail call void @lv_obj_set_style_opa(ptr noundef %9, i8 noundef zeroext %11, i32 noundef 0) #6
  %12 = trunc nuw nsw i64 %indvars.iv to i32
  tail call void @lv_obj_set_grid_cell(ptr noundef %9, i32 noundef 1, i32 noundef range(i32 0, 8) %12, i32 noundef 1, i32 noundef 1, i32 noundef range(i32 0, 8) %6, i32 noundef 1) #6
  %13 = load i32, ptr %5, align 4, !tbaa !19
  tail call void @lv_obj_set_style_line_width(ptr noundef %9, i32 noundef %13, i32 noundef 0) #6
  tail call void @lv_obj_set_style_line_rounded(ptr noundef %9, i1 noundef zeroext %2, i32 noundef 0) #6
  %indvars.iv.next = add nuw nsw i64 %indvars.iv, 1
  %exitcond.not = icmp eq i64 %indvars.iv.next, 8
  br i1 %exitcond.not, label %14, label %7, !llvm.loop !36

14:                                               ; preds = %7
  %indvars.iv.next22 = add nuw nsw i64 %indvars.iv21, 1
  %exitcond24.not = icmp eq i64 %indvars.iv.next22, 4
  br i1 %exitcond24.not, label %15, label %.preheader, !llvm.loop !37

15:                                               ; preds = %14
  br i1 %3, label %.preheader16, label %16, !llvm.loop !38

16:                                               ; preds = %15
  ret void
}